; ModuleID = '30/1874.c'
source_filename = "30/1874.c"
target datalayout = "e-m:e-p270:32:32-p271:32:32-p272:64:64-i64:64-f80:128-n8:16:32:64-S128"
target triple = "x86_64-pc-linux-gnu"

@.str = private unnamed_addr constant [3 x i8] c"%d\00", align 1

; Function Attrs: noinline nounwind uwtable
define dso_local i32 @main(i32 %0, i8** %1) #0 {
  %3 = alloca i32, align 4
  %4 = alloca i32, align 4
  %5 = alloca i8**, align 8
  %6 = alloca i32, align 4
  %7 = alloca i32, align 4
  %8 = alloca i32, align 4
  %9 = alloca i32, align 4
  %10 = alloca i32, align 4
  store i32 0, i32* %3, align 4
  store i32 %0, i32* %4, align 4
  store i8** %1, i8*** %5, align 8
  %11 = call i32 (i8*, ...) @__isoc99_scanf(i8* getelementptr inbounds ([3 x i8], [3 x i8]* @.str, i64 0, i64 0), i32* %6)
  store i32 0, i32* %7, align 4
  store i32 1, i32* %8, align 4
  br label %12

12:                                               ; preds = %38, %2
  %13 = load i32, i32* %8, align 4
  %14 = load i32, i32* %6, align 4
  %15 = icmp sle i32 %13, %14
  br i1 %15, label %16, label %41

16:                                               ; preds = %12
  %17 = load i32, i32* %8, align 4
  %18 = srem i32 %17, 7
  %19 = icmp ne i32 %18, 0
  br i1 %19, label %20, label %37

20:                                               ; preds = %16
  %21 = load i32, i32* %8, align 4
  %22 = srem i32 %21, 10
  store i32 %22, i32* %10, align 4
  %23 = load i32, i32* %8, align 4
  %24 = sdiv i32 %23, 10
  store i32 %24, i32* %9, align 4
  %25 = load i32, i32* %10, align 4
  %26 = icmp ne i32 %25, 7
  br i1 %26, label %27, label %36

27:                                               ; preds = %20
  %28 = load i32, i32* %9, align 4
  %29 = icmp ne i32 %28, 7
  br i1 %29, label %30, label %36

30:                                               ; preds = %27
  %31 = load i32, i32* %7, align 4
  %32 = load i32, i32* %8, align 4
  %33 = load i32, i32* %8, align 4
  %34 = mul nsw i32 %32, %33
  %35 = add nsw i32 %31, %34
  store i32 %35, i32* %7, align 4
  br label %36

36:                                               ; preds = %30, %27, %20
  br label %37

37:                                               ; preds = %36, %16
  br label %38

38:                                               ; preds = %37
  %39 = load i32, i32* %8, align 4
  %40 = add nsw i32 %39, 1
  store i32 %40, i32* %8, align 4
  br label %12

41:                                               ; preds = %12
  %42 = load i32, i32* %7, align 4
  %43 = call i32 (i8*, ...) @printf(i8* getelementptr inbounds ([3 x i8], [3 x i8]* @.str, i64 0, i64 0), i32 %42)
  ret i32 0
}

declare dso_local i32 @__isoc99_scanf(i8*, ...) #1

declare dso_local i32 @printf(i8*, ...) #1


!llvm.module.flags = !{!0}
!llvm.ident = !{!1}

!0 = !{i32 1, !"wchar_size", i32 4}
!1 = !{!"clang version 10.0.0-4ubuntu1 "}
